Sjasm Z80 Assembler v0.42c - www.xl2s.tk             [2025.02.12 - 19:39:44]

/Users/rafaellopezverdejo/Documents/proyectosMSX/asm/genroms/src/rom32.asm
Errors: 0

       1   00:0000                      ;*********************************************************************
       2   00:0000                      ;*
       3   00:0000                      ;* Código base de una ROM de 32 KB
       4   00:0000                      ;*
       5   00:0000                      ;* Fecha: 11/02/2025
       6   00:0000                      ;* Autor: Rafael López "Orion"
       7   00:0000                      ;* Email: orion@orionmsx.com
       8   00:0000                      ;* Créditos:
       9   00:0000                      ;*  - Rutina para acceder a los segundos 16 KB de la ROM -> Ramones
      10   00:0000                      ;*  - Ejemplo y explicaciones que me enseñaron esto -> Fernando García
      11   00:0000                      ;*
      12   00:0000                      ;*********************************************************************
      13   00:0000                      
      14   00:0000                      	output "out/rom32.rom"
      15   00:4000                      
      16   00:4000                          include "constantes.asm"
       1.  00:4000                      ;****************
       2.  00:4000                      ; SERVICIOS BIOS
       3.  00:4000                      ;****************
       4.  00:4000                      
       5.  00:4000  (00:004A)           RDVRM	equ	#004A	;lee de VRAM
       6.  00:4000  (00:004D)           WRTVRM	equ	#004D	;escribe en VRAM
       7.  00:4000  (00:0059)           LDIRMV 	equ	#0059   ;VRAM -> M
       8.  00:4000  (00:005C)           LDIRVM 	equ	#005C   ;M -> VRAM
       9.  00:4000  (00:005F)           CHGMOD	equ	#005F   ;cambia modo pantalla
      10.  00:4000  (00:0062)           CHGCLR	equ #0062   ;cambia colores pantalla
      11.  00:4000  (00:009C)           CHSNS	equ	#009C	;comprueba el estado del buffer del teclado
      12.  00:4000  (00:009F)           CHGET	equ	#009F	;lee un caracter del teclado
      13.  00:4000  (00:00A2)           CHPUT	equ #00A2	;escribe un carácter en pantalla
      14.  00:4000  (00:00C3)           CLS		equ	#00C3	;borra la pantalla
      15.  00:4000  (00:00C6)           POSIT	equ #00C6	;posiciona el cursor en pantalla
      16.  00:4000  (00:00CC)           ERAFNK	equ	#00CC   ;oculta teclas de funcion
      17.  00:4000  (00:0020)           DCOMPR	equ	#0020	;compara HL y DE
      18.  00:4000  (00:0047)           WRTVDP 	equ #0047	;escribe registro del VDP
      19.  00:4000  (00:00D5)           GTSTCK  equ	#00D5	;lee los cursores y joystick
      20.  00:4000  (00:00D8)           GTTRIG	equ #00D8   ;lee los botones de acción
      21.  00:4000  (00:013E)           RDVDP	equ	#013E	;lee registro del VDP
      22.  00:4000  (00:0156)           KILBUF	equ	#0156	;vacía el buffer del teclado
      23.  00:4000  (00:0024)           ENASLT	equ	#0024   ;selecciona un slot
      24.  00:4000  (00:0138)           RSLREG  equ #0138   ;lee el contenido de la salida actual en el registro de ranuras primarias
      25.  00:4000                      
      26.  00:4000                      ;***********************
      27.  00:4000                      ; VARIABLES DEL SISTEMA
      28.  00:4000                      ;***********************
      29.  00:4000                      
      30.  00:4000  (00:F3DB)           CLIKSW	equ #F3DB	;sonido de las teclas
      31.  00:4000  (00:F3E9)           FORCLR	equ #F3E9	;color de tinta
      32.  00:4000  (00:F3EA)           BAKCLR	equ #F3EA	;color de fondo
      33.  00:4000  (00:F3EB)           BDRCLR	equ #F3EB	;color de borde
      34.  00:4000  (00:FC9E)           JIFFY	equ	#FC9E   ;reloj software que cuenta interrupciones
      35.  00:4000                      
      36.  00:4000  (00:F3DF)           RG0SAV 	equ	#F3DF	;registros del VDP
      37.  00:4000  (00:F3E0)           RG1SAV 	equ	#F3E0
      38.  00:4000  (00:F3E1)           RG2SAV 	equ	#F3E1
      39.  00:4000  (00:F3E2)           RG3SAV 	equ	#F3E2
      40.  00:4000  (00:F3E3)           RG4SAV 	equ	#F3E3
      41.  00:4000  (00:F3E4)           RG5SAV 	equ	#F3E4
      42.  00:4000  (00:F3E5)           RG6SAV 	equ	#F3E5
      43.  00:4000  (00:F3E6)           RG7SAV 	equ	#F3E6
      44.  00:4000  (00:F3E7)           STATFL 	equ	#F3E7
      45.  00:4000                      
      46.  00:4000                      ;*************************
      47.  00:4000                      ; DIRECCIONES IMPORTANTES
      48.  00:4000                      ;*************************
      49.  00:4000                      
      50.  00:4000  (00:FD9F)           HTIMI	equ #FD9F   ;dirección de la ISR original del sistema para el VDP
      51.  00:4000  (00:C000)           SLOTVAR equ #c000   ;dirección donde almacena el slotvar la rutina de Ramones
      52.  00:4000                      
      53.  00:4000                      ;******************
      54.  00:4000                      ; DIRECCIONES VRAM
      55.  00:4000                      ;******************
      56.  00:4000                      
      57.  00:4000  (00:0000)           CHRTBL1 equ	#0000	;pattern table address
      58.  00:4000  (00:1800)           NAMTBL1 equ	#1800	;name table address 
      59.  00:4000  (00:2000)           CLRTBL1 equ	#2000	;color table address             
      60.  00:4000  (00:0800)           SPRTBL1 equ	#0800	;sprite pattern address  
      61.  00:4000  (00:1B00)           SPRATR1 equ	#1B00	;sprite attribute address
      62.  00:4000                      
      63.  00:4000  (00:0000)           CHRTBL2 equ	#0000	;pattern table address
      64.  00:4000  (00:1800)           NAMTBL2 equ	#1800	;name table address 
      65.  00:4000  (00:2000)           CLRTBL2 equ	#2000	;color table address             
      66.  00:4000  (00:3800)           SPRTBL2 equ	#3800	;sprite pattern address  
      67.  00:4000  (00:1B00)           SPRATR2 equ	#1B00	;sprite attribute address
      68.  00:4000                      
      69.  00:4000                      ;*********
      70.  00:4000                      ; COLORES
      71.  00:4000                      ;*********
      72.  00:4000                      
      73.  00:4000  (00:0000)           COLOR_TRANSPARENT	equ 0
      74.  00:4000  (00:0001)           COLOR_BLACK		    equ 1
      75.  00:4000  (00:0002)           COLOR_GREEN		    equ 2
      76.  00:4000  (00:0003)           COLOR_LIGHT_GREEN	equ 3
      77.  00:4000  (00:0004)           COLOR_DARK_BLUE	    equ 4
      78.  00:4000  (00:0005)           COLOR_BLUE		    equ 5
      79.  00:4000  (00:0006)           COLOR_DARK_RED	    equ 6
      80.  00:4000  (00:0007)           COLOR_LIGHT_BLUE	equ 7
      81.  00:4000  (00:0008)           COLOR_RED			equ 8
      82.  00:4000  (00:0009)           COLOR_LIGHT_RED	    equ 9
      83.  00:4000  (00:000A)           COLOR_DARK_YELLOW	equ 10
      84.  00:4000  (00:000B)           COLOR_YELLOW		equ 11
      85.  00:4000  (00:000C)           COLOR_DARK_GREEN	equ 12
      86.  00:4000  (00:000D)           COLOR_PURPLE		equ 13
      87.  00:4000  (00:000E)           COLOR_GREY		    equ 14
      88.  00:4000  (00:000F)           COLOR_WHITE		    equ 15
      89.  00:4000                      
      90.  00:4000                      ;*************
      91.  00:4000                      ; ESPECIFICAS
      92.  00:4000                      ;*************
      93.  00:4000                      
      94.  00:4000  (00:003C)           MAX_CONTADOR_VBLANKS    equ 60  ;número de vblanks por cada segundo
      17   00:4000                      
      18   00:4000                      ;********************************************
      19   00:4000                      ; Página 0 del cartucho, Página 1 de memoria
      20   00:4000                      ; 0x4000 a 0x7FFF = 16 KB
      21   00:4000                      ;********************************************
      22   00:4000                      
      23   00:4000                      	org	#4000
      24   00:4000                      
      25   00:4000                      ;**************
      26   00:4000                      ; CABECERA ROM
      27   00:4000                      ;**************
      28   00:4000                      								
      29   00:4000  41 42               	db "AB"
      30   00:4002  10 40               	dw BEGIN
      31   00:4004                      	dw 0,0,0,0,0,0
      31   00:4004  00 00 00 00 00 00 00 00 00 00 00 00 
      32   00:4010                      
      33   00:4010                      
      34   00:4010                      ;*********************
      35   00:4010                      ; INICIO DEL PROGRAMA
      36   00:4010                      ;*********************
      37   00:4010                      
      38   00:4010                      BEGIN:
      39   00:4010                      
      40   00:4010                          include "inicializa_rom32.asm"
       1.  00:4010  F3                      di
       2.  00:4011  ED 56                   im 1                            ;ponemos interrupciones en modo 1
       3.  00:4013  31 80 F3                ld sp,0xF380                    ;posicionamos la pila
       4.  00:4016  CD 2C 40                call search_slotset             ;ubicamos la página 1 del cartucho en la página 2 de memoria
       5.  00:4019  FB                      ei
      41   00:401A                          include "ejemplo.asm"
       1.  00:401A                          ;screen 0
       2.  00:401A  AF                  	xor a
       3.  00:401B  CD 5F 00            	call CHGMOD
       4.  00:401E                      
       5.  00:401E                          ;escribimos mensaje en pantalla
       6.  00:401E  01 27 00                ld bc,string_fin-string
       7.  00:4021  11 00 00            	ld de,0
       8.  00:4024  21 00 80            	ld hl,string
       9.  00:4027  CD 5C 00            	call LDIRVM
      10.  00:402A                      
      11.  00:402A                          ;bucle infinito
      12.  00:402A  18 FE                   jr $
      42   00:402C                          include "fgenericas.asm"
       1.  00:402C                      ;original from Ramones (http://karoshi.auic.es/index.php?topic=628.0)
       2.  00:402C                      ;nueva URL http://karoshi.auic.es/karoshi.auic.es/index.php/topic%2c628.0.html
       3.  00:402C                      ; -----------------------
       4.  00:402C                      ; SEARCH_SLOTSET
       5.  00:402C                      ; Posiciona en pagina 2
       6.  00:402C                      ; Nuestro ROM.
       7.  00:402C                      ; -----------------------
       8.  00:402C                      
       9.  00:402C                      search_slotset:
      10.  00:402C  CD 32 40            	call search_slot
      11.  00:402F  C3 24 00            	jp ENASLT
      12.  00:4032                      
      13.  00:4032                      
      14.  00:4032                      ; -----------------------
      15.  00:4032                      ; SEARCH_SLOT
      16.  00:4032                      ; Busca slot de nuestro rom
      17.  00:4032                      ; -----------------------
      18.  00:4032                      
      19.  00:4032                      search_slot:
      20.  00:4032                      
      21.  00:4032  CD 38 01            	call RSLREG
      22.  00:4035  0F                  	rrca
      23.  00:4036  0F                  	rrca
      24.  00:4037  E6 03               	and 3
      25.  00:4039  4F                  	ld c,a
      26.  00:403A  06 00               	ld b,0
      27.  00:403C  21 C1 FC            	ld hl,0FCC1h
      28.  00:403F  09                  	add hl,bc
      29.  00:4040  7E                  	ld a,(hl)
      30.  00:4041  E6 80               	and 080h
      31.  00:4043  B1                  	or c
      32.  00:4044  4F                  	ld c,a
      33.  00:4045  23                  	inc hl
      34.  00:4046  23                  	inc hl
      35.  00:4047  23                  	inc hl
      36.  00:4048  23                  	inc hl
      37.  00:4049  7E                  	ld a,(hl)
      38.  00:404A  E6 0C               	and 0Ch
      39.  00:404C  B1                  	or c
      40.  00:404D  26 80               	ld h,080h
      41.  00:404F  32 00 C0            	ld (SLOTVAR),a
      42.  00:4052  C9                  	ret	
      43   00:4053                      
      44   00:4053                          ;relleno hasta fin de página
      45   00:4053  00 (16301)              ds #8000-$
      46   00:8000                      
      47   00:8000                      ;********************************************
      48   00:8000                      ; Página 1 del cartucho, Página 2 de memoria
      49   00:8000                      ; 0x8000 a 0xBFFF = 16 KB
      50   00:8000                      ;********************************************
      51   00:8000                      
      52   00:8000                          include "variables.asm"
       1.  00:8000                      string:		
       2.  00:8000                      	db "Hemos conseguido hacer una ROM de 32 KB"
       2.  00:8000  48 65 6D 6F 73 20 63 6F 6E 73 65 67 75 69 64 6F 
       2.  00:8010  20 68 61 63 65 72 20 75 6E 61 20 52 4F 4D 20 64 
       2.  00:8020  65 20 33 32 20 4B 42 
       3.  00:8027                      string_fin:
      53   00:8027                      
      54   00:8027                          ;relleno hasta fin de página
      55   00:8027  00 (16345)              ds #C000-$

    LABELS
-------------------------------------------------
00:0000004A X RDVRM
00:0000004D X WRTVRM
00:00000059 X LDIRMV
00:0000005C   LDIRVM
00:0000005F   CHGMOD
00:00000062 X CHGCLR
00:0000009C X CHSNS
00:0000009F X CHGET
00:000000A2 X CHPUT
00:000000C3 X CLS
00:000000C6 X POSIT
00:000000CC X ERAFNK
00:00000020 X DCOMPR
00:00000047 X WRTVDP
00:000000D5 X GTSTCK
00:000000D8 X GTTRIG
00:0000013E X RDVDP
00:00000156 X KILBUF
00:00000024   ENASLT
00:00000138   RSLREG
00:0000F3DB X CLIKSW
00:0000F3E9 X FORCLR
00:0000F3EA X BAKCLR
00:0000F3EB X BDRCLR
00:0000FC9E X JIFFY
00:0000F3DF X RG0SAV
00:0000F3E0 X RG1SAV
00:0000F3E1 X RG2SAV
00:0000F3E2 X RG3SAV
00:0000F3E3 X RG4SAV
00:0000F3E4 X RG5SAV
00:0000F3E5 X RG6SAV
00:0000F3E6 X RG7SAV
00:0000F3E7 X STATFL
00:0000FD9F X HTIMI
00:0000C000   SLOTVAR
00:00000000 X CHRTBL1
00:00001800 X NAMTBL1
00:00002000 X CLRTBL1
00:00000800 X SPRTBL1
00:00001B00 X SPRATR1
00:00000000 X CHRTBL2
00:00001800 X NAMTBL2
00:00002000 X CLRTBL2
00:00003800 X SPRTBL2
00:00001B00 X SPRATR2
00:00000000 X COLOR_TRANSPARENT
00:00000001 X COLOR_BLACK
00:00000002 X COLOR_GREEN
00:00000003 X COLOR_LIGHT_GREEN
00:00000004 X COLOR_DARK_BLUE
00:00000005 X COLOR_BLUE
00:00000006 X COLOR_DARK_RED
00:00000007 X COLOR_LIGHT_BLUE
00:00000008 X COLOR_RED
00:00000009 X COLOR_LIGHT_RED
00:0000000A X COLOR_DARK_YELLOW
00:0000000B X COLOR_YELLOW
00:0000000C X COLOR_DARK_GREEN
00:0000000D X COLOR_PURPLE
00:0000000E X COLOR_GREY
00:0000000F X COLOR_WHITE
00:0000003C X MAX_CONTADOR_VBLANKS
00:00004010   BEGIN
00:0000402C   search_slotset
00:00004032   search_slot
00:00008000   string
00:00008027   string_fin


 Output: out/rom32
-------------------------------------------------

 Page: 00
  Org: 00004000  Size: *  Used: 00000000

    No output

 Output: out/rom32.rom
-------------------------------------------------

 Page: 00
  Org: 00004000  Size: *  Used: 00008000

   Address   Length Align   Label
   00004000   32768         BEGIN
